target datalayout = "e-m:e-p270:32:32-p271:32:32-p272:64:64-i64:64-i128:128-f80:128-n8:16:32:64-S128"
target triple = "x86_64-pc-linux-gnu"

%"class.boost::asio::detail::tss_ptr" = type { i8 }
%"class.boost::system::error_code" = type { %union.anon.3, i64 }
%union.anon.3 = type { %"struct.boost::system::error_code::data" }
%"struct.boost::system::error_code::data" = type { i32, ptr }
%class.anon.7 = type { ptr }
%"class.boost::asio::detail::thread_info_base" = type { [12 x ptr], i32, %"class.std::__exception_ptr::exception_ptr" }
%"class.std::__exception_ptr::exception_ptr" = type { ptr }
%"class.boost::asio::detail::call_stack<boost::asio::detail::thread_context, boost::asio::detail::thread_info_base>::context" = type { ptr, ptr, ptr }
%"struct.boost::asio::detail::executor_function::impl_base" = type { ptr }
%"class.std::allocator.25" = type { i8 }
%"class.boost::asio::detail::recycling_allocator.58" = type { i8 }
%"class.boost::asio::detail::binder1.66" = type { %class.anon.7, %"class.boost::system::error_code" }
%"struct.boost::asio::detail::executor_function::impl<boost::asio::detail::binder1<(lambda at /home/dtcxzyw/WorkSpace/Projects/compilers/llvm-opt-benchmark/bench/boost/boost/libs/process/test/v2/target.cpp:133:22), boost::system::error_code>, std::allocator<void>>::ptr" = type { ptr, ptr, ptr }
%"class.boost::asio::detail::recycling_allocator.70" = type { i8 }
%"struct.boost::asio::detail::executor_function::impl.68" = type <{ %"struct.boost::asio::detail::executor_function::impl_base", %"class.boost::asio::detail::binder1.66", [8 x i8] }>

@_ZN5boost4asio6detail10call_stackINS1_14thread_contextENS1_16thread_info_baseEE4top_E = linkonce_odr dso_local global %"class.boost::asio::detail::tss_ptr" zeroinitializer, comdat, align 1
@_ZN5boost4asio6detail15keyword_tss_ptrINS1_10call_stackINS1_14thread_contextENS1_16thread_info_baseEE7contextEE6value_E = linkonce_odr dso_local thread_local global ptr null, comdat, align 8

; Function Attrs: mustprogress nounwind uwtable
define linkonce_odr hidden noundef ptr @_ZNK5boost4asio6detail15keyword_tss_ptrINS1_10call_stackINS1_14thread_contextENS1_16thread_info_baseEE7contextEEcvPS7_Ev(ptr noundef nonnull align 1 dereferenceable(1) %0) #6 comdat align 2 {
  %2 = alloca ptr, align 8
  store ptr %0, ptr %2, align 8, !tbaa !8
  %3 = call align 8 ptr @llvm.threadlocal.address.p0(ptr align 8 @_ZN5boost4asio6detail15keyword_tss_ptrINS1_10call_stackINS1_14thread_contextENS1_16thread_info_baseEE7contextEE6value_E)
  %4 = load ptr, ptr %3, align 8, !tbaa !8
  ret ptr %4
}

; Function Attrs: inlinehint mustprogress nounwind uwtable
define linkonce_odr hidden void @_ZN5boost4asio14aligned_deleteEPv(ptr noundef %0) #5 comdat {
  %2 = alloca ptr, align 8
  store ptr %0, ptr %2, align 8, !tbaa !8
  %3 = load ptr, ptr %2, align 8, !tbaa !8
  call void @free(ptr noundef %3) #3
  ret void
}

; Function Attrs: mustprogress nounwind uwtable
define linkonce_odr hidden noundef ptr @_ZN5boost4asio6detail10call_stackINS1_14thread_contextENS1_16thread_info_baseEE3topEv() #6 comdat align 2 {
  %1 = alloca ptr, align 8
  call void @llvm.lifetime.start.p0(i64 8, ptr %1) #3
  %2 = call noundef ptr @_ZNK5boost4asio6detail15keyword_tss_ptrINS1_10call_stackINS1_14thread_contextENS1_16thread_info_baseEE7contextEEcvPS7_Ev(ptr noundef nonnull align 1 dereferenceable(1) @_ZN5boost4asio6detail10call_stackINS1_14thread_contextENS1_16thread_info_baseEE4top_E)
  store ptr %2, ptr %1, align 8, !tbaa !8
  %3 = load ptr, ptr %1, align 8, !tbaa !8
  %4 = icmp ne ptr %3, null
  br i1 %4, label %5, label %9

5:                                                ; preds = %0
  %6 = load ptr, ptr %1, align 8, !tbaa !8
  %7 = getelementptr inbounds nuw %"class.boost::asio::detail::call_stack<boost::asio::detail::thread_context, boost::asio::detail::thread_info_base>::context", ptr %6, i32 0, i32 1
  %8 = load ptr, ptr %7, align 8, !tbaa !208
  br label %10

9:                                                ; preds = %0
  br label %10

10:                                               ; preds = %9, %5
  %11 = phi ptr [ %8, %5 ], [ null, %9 ]
  call void @llvm.lifetime.end.p0(i64 8, ptr %1) #3
  ret ptr %11
}

; Function Attrs: mustprogress nounwind uwtable
define linkonce_odr hidden void @_ZN5boost4asio6detail16thread_info_base10deallocateINS2_21executor_function_tagEEEvT_PS2_Pvm(ptr noundef %0, ptr noundef %1, i64 noundef %2) #6 comdat align 2 {
  %4 = alloca ptr, align 8
  %5 = alloca ptr, align 8
  %6 = alloca i64, align 8
  %7 = alloca i32, align 4
  %8 = alloca i32, align 4
  %9 = alloca ptr, align 8
  store ptr %0, ptr %4, align 8, !tbaa !8
  store ptr %1, ptr %5, align 8, !tbaa !8
  store i64 %2, ptr %6, align 8, !tbaa !46
  %10 = load i64, ptr %6, align 8, !tbaa !46
  %11 = icmp ule i64 %10, 1020
  br i1 %11, label %12, label %50

12:                                               ; preds = %3
  %13 = load ptr, ptr %4, align 8, !tbaa !8
  %14 = icmp ne ptr %13, null
  br i1 %14, label %15, label %49

15:                                               ; preds = %12
  call void @llvm.lifetime.start.p0(i64 4, ptr %7) #3
  store i32 4, ptr %7, align 4, !tbaa !4
  br label %16

16:                                               ; preds = %43, %15
  %17 = load i32, ptr %7, align 4, !tbaa !4
  %18 = icmp slt i32 %17, 6
  br i1 %18, label %20, label %19

19:                                               ; preds = %16
  store i32 2, ptr %8, align 4
  br label %46

20:                                               ; preds = %16
  %21 = load ptr, ptr %4, align 8, !tbaa !8
  %22 = getelementptr inbounds nuw %"class.boost::asio::detail::thread_info_base", ptr %21, i32 0, i32 0
  %23 = load i32, ptr %7, align 4, !tbaa !4
  %24 = sext i32 %23 to i64
  %25 = getelementptr inbounds [12 x ptr], ptr %22, i64 0, i64 %24
  %26 = load ptr, ptr %25, align 8, !tbaa !8
  %27 = icmp eq ptr %26, null
  br i1 %27, label %28, label %42

28:                                               ; preds = %20
  call void @llvm.lifetime.start.p0(i64 8, ptr %9) #3
  %29 = load ptr, ptr %5, align 8, !tbaa !8
  store ptr %29, ptr %9, align 8, !tbaa !8
  %30 = load ptr, ptr %9, align 8, !tbaa !8
  %31 = load i64, ptr %6, align 8, !tbaa !46
  %32 = getelementptr inbounds nuw i8, ptr %30, i64 %31
  %33 = load i8, ptr %32, align 1, !tbaa !19
  %34 = load ptr, ptr %9, align 8, !tbaa !8
  %35 = getelementptr inbounds i8, ptr %34, i64 0
  store i8 %33, ptr %35, align 1, !tbaa !19
  %36 = load ptr, ptr %5, align 8, !tbaa !8
  %37 = load ptr, ptr %4, align 8, !tbaa !8
  %38 = getelementptr inbounds nuw %"class.boost::asio::detail::thread_info_base", ptr %37, i32 0, i32 0
  %39 = load i32, ptr %7, align 4, !tbaa !4
  %40 = sext i32 %39 to i64
  %41 = getelementptr inbounds [12 x ptr], ptr %38, i64 0, i64 %40
  store ptr %36, ptr %41, align 8, !tbaa !8
  store i32 1, ptr %8, align 4
  call void @llvm.lifetime.end.p0(i64 8, ptr %9) #3
  br label %46

42:                                               ; preds = %20
  br label %43

43:                                               ; preds = %42
  %44 = load i32, ptr %7, align 4, !tbaa !4
  %45 = add nsw i32 %44, 1
  store i32 %45, ptr %7, align 4, !tbaa !4
  br label %16, !llvm.loop !355

46:                                               ; preds = %28, %19
  call void @llvm.lifetime.end.p0(i64 4, ptr %7) #3
  %47 = load i32, ptr %8, align 4
  switch i32 %47, label %53 [
    i32 2, label %48
    i32 1, label %52
  ]

48:                                               ; preds = %46
  br label %49

49:                                               ; preds = %48, %12
  br label %50

50:                                               ; preds = %49, %3
  %51 = load ptr, ptr %5, align 8, !tbaa !8
  call void @_ZN5boost4asio14aligned_deleteEPv(ptr noundef %51)
  br label %52

52:                                               ; preds = %50, %46
  ret void

53:                                               ; preds = %46
  unreachable
}

; Function Attrs: inlinehint mustprogress uwtable
define linkonce_odr hidden noundef ptr @_ZN5boost4asio6detail14thread_context24top_of_thread_call_stackEv() #4 comdat align 2 {
  %1 = call noundef ptr @_ZN5boost4asio6detail10call_stackINS1_14thread_contextENS1_16thread_info_baseEE3topEv()
  ret ptr %1
}

; Function Attrs: mustprogress nounwind uwtable
define linkonce_odr hidden void @_ZN5boost4asio6detail19recycling_allocatorIvNS1_16thread_info_base21executor_function_tagEEC2Ev(ptr noundef nonnull align 1 dereferenceable(1) %0) unnamed_addr #6 comdat align 2 {
  %2 = alloca ptr, align 8
  store ptr %0, ptr %2, align 8, !tbaa !8
  ret void
}

; Function Attrs: noinline noreturn nounwind uwtable
define linkonce_odr hidden void @__clang_call_terminate(ptr noundef %0) #7 comdat {
  %2 = call ptr @__cxa_begin_catch(ptr %0) #3
  call void @_ZSt9terminatev() #26
  unreachable
}

; Function Attrs: inlinehint mustprogress nounwind uwtable
define internal void @"_ZZ4mainENK3$_3clEN5boost6system10error_codeE"(ptr noundef nonnull align 8 dereferenceable(8) %0, ptr noundef byval(%"class.boost::system::error_code") align 8 %1) #5 align 2 {
  %3 = alloca ptr, align 8
  store ptr %0, ptr %3, align 8, !tbaa !8
  %4 = load ptr, ptr %3, align 8
  %5 = getelementptr inbounds nuw %class.anon.7, ptr %4, i32 0, i32 0
  %6 = load ptr, ptr %5, align 8, !tbaa !383
  call void @llvm.memcpy.p0.p0.i64(ptr align 8 %6, ptr align 8 %1, i64 24, i1 false), !tbaa.struct !89
  ret void
}

; Function Attrs: mustprogress uwtable
define internal void @"_ZN5boost4asio6detail19recycling_allocatorINS1_17executor_function4implINS1_7binder1IZ4mainE3$_3NS_6system10error_codeEEESaIvEEENS1_16thread_info_base21executor_function_tagEE10deallocateEPSB_m"(ptr noundef nonnull align 1 dereferenceable(1) %0, ptr noundef %1, i64 noundef %2) #9 align 2 {
  %4 = alloca ptr, align 8
  %5 = alloca ptr, align 8
  %6 = alloca i64, align 8
  store ptr %0, ptr %4, align 8, !tbaa !8
  store ptr %1, ptr %5, align 8, !tbaa !8
  store i64 %2, ptr %6, align 8, !tbaa !46
  %7 = call noundef ptr @_ZN5boost4asio6detail14thread_context24top_of_thread_call_stackEv()
  %8 = load ptr, ptr %5, align 8, !tbaa !8
  %9 = load i64, ptr %6, align 8, !tbaa !46
  %10 = mul i64 48, %9
  call void @_ZN5boost4asio6detail16thread_info_base10deallocateINS2_21executor_function_tagEEEvT_PS2_Pvm(ptr noundef %7, ptr noundef %8, i64 noundef %10)
  ret void
}

; Function Attrs: mustprogress nounwind uwtable
define internal void @"_ZN5boost4asio6detail19recycling_allocatorINS1_17executor_function4implINS1_7binder1IZ4mainE3$_3NS_6system10error_codeEEESaIvEEENS1_16thread_info_base21executor_function_tagEEC2IvEERKNS2_IT_SD_EE"(ptr noundef nonnull align 1 dereferenceable(1) %0, ptr noundef nonnull align 1 dereferenceable(1) %1) unnamed_addr #6 align 2 {
  %3 = alloca ptr, align 8
  %4 = alloca ptr, align 8
  store ptr %0, ptr %3, align 8, !tbaa !8
  store ptr %1, ptr %4, align 8, !tbaa !8
  ret void
}

; Function Attrs: mustprogress uwtable
define linkonce_odr hidden void @_ZN5boost4asio6detail23get_recycling_allocatorISaIvENS1_16thread_info_base21executor_function_tagEE3getERKS3_(ptr noundef nonnull align 1 dereferenceable(1) %0) #9 comdat align 2 {
  %2 = alloca %"class.boost::asio::detail::recycling_allocator.58", align 1
  %3 = alloca ptr, align 8
  store ptr %0, ptr %3, align 8, !tbaa !8
  call void @_ZN5boost4asio6detail19recycling_allocatorIvNS1_16thread_info_base21executor_function_tagEEC2Ev(ptr noundef nonnull align 1 dereferenceable(1) %2)
  ret void
}

; Function Attrs: mustprogress nounwind uwtable
define internal void @"_ZN5boost4asio6detail17executor_function4implINS1_7binder1IZ4mainE3$_3NS_6system10error_codeEEESaIvEE3ptrD2Ev"(ptr noundef nonnull align 8 dereferenceable(24) %0) unnamed_addr #6 align 2 personality ptr @__gxx_personality_v0 {
  %2 = alloca ptr, align 8
  store ptr %0, ptr %2, align 8, !tbaa !8
  %3 = load ptr, ptr %2, align 8
  invoke void @"_ZN5boost4asio6detail17executor_function4implINS1_7binder1IZ4mainE3$_3NS_6system10error_codeEEESaIvEE3ptr5resetEv"(ptr noundef nonnull align 8 dereferenceable(24) %3)
          to label %4 unwind label %5

4:                                                ; preds = %1
  ret void

5:                                                ; preds = %1
  %6 = landingpad { ptr, i32 }
          catch ptr null
  %7 = extractvalue { ptr, i32 } %6, 0
  call void @__clang_call_terminate(ptr %7) #26
  unreachable
}

; Function Attrs: mustprogress uwtable
define internal void @"_ZN5boost4asio6detail7binder1IZ4mainE3$_3NS_6system10error_codeEEclEv"(ptr noundef nonnull align 8 dereferenceable(32) %0) #9 align 2 {
  %2 = alloca ptr, align 8
  %3 = alloca %"class.boost::system::error_code", align 8
  store ptr %0, ptr %2, align 8, !tbaa !8
  %4 = load ptr, ptr %2, align 8
  %5 = getelementptr inbounds nuw %"class.boost::asio::detail::binder1.66", ptr %4, i32 0, i32 0
  %6 = getelementptr inbounds nuw %"class.boost::asio::detail::binder1.66", ptr %4, i32 0, i32 1
  call void @llvm.memcpy.p0.p0.i64(ptr align 8 %3, ptr align 8 %6, i64 24, i1 false), !tbaa.struct !89
  call void @"_ZZ4mainENK3$_3clEN5boost6system10error_codeE"(ptr noundef nonnull align 8 dereferenceable(8) %5, ptr noundef byval(%"class.boost::system::error_code") align 8 %3)
  ret void
}

; Function Attrs: mustprogress uwtable
define internal void @"_ZN5boost4asio6detail17executor_function4implINS1_7binder1IZ4mainE3$_3NS_6system10error_codeEEESaIvEE3ptr5resetEv"(ptr noundef nonnull align 8 dereferenceable(24) %0) #9 align 2 {
  %2 = alloca ptr, align 8
  %3 = alloca %"class.boost::asio::detail::recycling_allocator.70", align 1
  %4 = alloca %"class.boost::asio::detail::recycling_allocator.58", align 1
  store ptr %0, ptr %2, align 8, !tbaa !8
  %5 = load ptr, ptr %2, align 8
  %6 = getelementptr inbounds nuw %"struct.boost::asio::detail::executor_function::impl<boost::asio::detail::binder1<(lambda at /home/dtcxzyw/WorkSpace/Projects/compilers/llvm-opt-benchmark/bench/boost/boost/libs/process/test/v2/target.cpp:133:22), boost::system::error_code>, std::allocator<void>>::ptr", ptr %5, i32 0, i32 2
  %7 = load ptr, ptr %6, align 8, !tbaa !390
  %8 = icmp ne ptr %7, null
  br i1 %8, label %9, label %11

9:                                                ; preds = %1
  %10 = getelementptr inbounds nuw %"struct.boost::asio::detail::executor_function::impl<boost::asio::detail::binder1<(lambda at /home/dtcxzyw/WorkSpace/Projects/compilers/llvm-opt-benchmark/bench/boost/boost/libs/process/test/v2/target.cpp:133:22), boost::system::error_code>, std::allocator<void>>::ptr", ptr %5, i32 0, i32 2
  store ptr null, ptr %10, align 8, !tbaa !390
  br label %11

11:                                               ; preds = %9, %1
  %12 = getelementptr inbounds nuw %"struct.boost::asio::detail::executor_function::impl<boost::asio::detail::binder1<(lambda at /home/dtcxzyw/WorkSpace/Projects/compilers/llvm-opt-benchmark/bench/boost/boost/libs/process/test/v2/target.cpp:133:22), boost::system::error_code>, std::allocator<void>>::ptr", ptr %5, i32 0, i32 1
  %13 = load ptr, ptr %12, align 8, !tbaa !389
  %14 = icmp ne ptr %13, null
  br i1 %14, label %15, label %21

15:                                               ; preds = %11
  call void @llvm.lifetime.start.p0(i64 1, ptr %3) #3
  call void @llvm.lifetime.start.p0(i64 1, ptr %4) #3
  %16 = getelementptr inbounds nuw %"struct.boost::asio::detail::executor_function::impl<boost::asio::detail::binder1<(lambda at /home/dtcxzyw/WorkSpace/Projects/compilers/llvm-opt-benchmark/bench/boost/boost/libs/process/test/v2/target.cpp:133:22), boost::system::error_code>, std::allocator<void>>::ptr", ptr %5, i32 0, i32 0
  %17 = load ptr, ptr %16, align 8, !tbaa !387
  call void @_ZN5boost4asio6detail23get_recycling_allocatorISaIvENS1_16thread_info_base21executor_function_tagEE3getERKS3_(ptr noundef nonnull align 1 dereferenceable(1) %17)
  call void @"_ZN5boost4asio6detail19recycling_allocatorINS1_17executor_function4implINS1_7binder1IZ4mainE3$_3NS_6system10error_codeEEESaIvEEENS1_16thread_info_base21executor_function_tagEEC2IvEERKNS2_IT_SD_EE"(ptr noundef nonnull align 1 dereferenceable(1) %3, ptr noundef nonnull align 1 dereferenceable(1) %4)
  call void @llvm.lifetime.end.p0(i64 1, ptr %4) #3
  %18 = getelementptr inbounds nuw %"struct.boost::asio::detail::executor_function::impl<boost::asio::detail::binder1<(lambda at /home/dtcxzyw/WorkSpace/Projects/compilers/llvm-opt-benchmark/bench/boost/boost/libs/process/test/v2/target.cpp:133:22), boost::system::error_code>, std::allocator<void>>::ptr", ptr %5, i32 0, i32 1
  %19 = load ptr, ptr %18, align 8, !tbaa !389
  call void @"_ZN5boost4asio6detail19recycling_allocatorINS1_17executor_function4implINS1_7binder1IZ4mainE3$_3NS_6system10error_codeEEESaIvEEENS1_16thread_info_base21executor_function_tagEE10deallocateEPSB_m"(ptr noundef nonnull align 1 dereferenceable(1) %3, ptr noundef %19, i64 noundef 1)
  %20 = getelementptr inbounds nuw %"struct.boost::asio::detail::executor_function::impl<boost::asio::detail::binder1<(lambda at /home/dtcxzyw/WorkSpace/Projects/compilers/llvm-opt-benchmark/bench/boost/boost/libs/process/test/v2/target.cpp:133:22), boost::system::error_code>, std::allocator<void>>::ptr", ptr %5, i32 0, i32 1
  store ptr null, ptr %20, align 8, !tbaa !389
  call void @llvm.lifetime.end.p0(i64 1, ptr %3) #3
  br label %21

21:                                               ; preds = %15, %11
  ret void
}

; Function Attrs: mustprogress nounwind uwtable
define internal void @"_ZN5boost4asio6detail7binder1IZ4mainE3$_3NS_6system10error_codeEEC2EOS6_"(ptr noundef nonnull align 8 dereferenceable(32) %0, ptr noundef nonnull align 8 dereferenceable(32) %1) unnamed_addr #6 align 2 {
  %3 = alloca ptr, align 8
  %4 = alloca ptr, align 8
  store ptr %0, ptr %3, align 8, !tbaa !8
  store ptr %1, ptr %4, align 8, !tbaa !8
  %5 = load ptr, ptr %3, align 8
  %6 = getelementptr inbounds nuw %"class.boost::asio::detail::binder1.66", ptr %5, i32 0, i32 0
  %7 = load ptr, ptr %4, align 8, !tbaa !8
  %8 = getelementptr inbounds nuw %"class.boost::asio::detail::binder1.66", ptr %7, i32 0, i32 0
  call void @llvm.memcpy.p0.p0.i64(ptr align 8 %6, ptr align 8 %8, i64 8, i1 false), !tbaa.struct !195
  %9 = getelementptr inbounds nuw %"class.boost::asio::detail::binder1.66", ptr %5, i32 0, i32 1
  %10 = load ptr, ptr %4, align 8, !tbaa !8
  %11 = getelementptr inbounds nuw %"class.boost::asio::detail::binder1.66", ptr %10, i32 0, i32 1
  call void @llvm.memcpy.p0.p0.i64(ptr align 8 %9, ptr align 8 %11, i64 24, i1 false), !tbaa.struct !89
  ret void
}

; Function Attrs: mustprogress uwtable
define internal void @"_ZN5boost4asio6detail17executor_function8completeINS1_7binder1IZ4mainE3$_3NS_6system10error_codeEEESaIvEEEvPNS2_9impl_baseEb"(ptr noundef %0, i1 noundef zeroext %1) #9 align 2 personality ptr @__gxx_personality_v0 {
  %3 = alloca ptr, align 8
  %4 = alloca i8, align 1
  %5 = alloca ptr, align 8
  %6 = alloca %"class.std::allocator.25", align 1
  %7 = alloca %"struct.boost::asio::detail::executor_function::impl<boost::asio::detail::binder1<(lambda at /home/dtcxzyw/WorkSpace/Projects/compilers/llvm-opt-benchmark/bench/boost/boost/libs/process/test/v2/target.cpp:133:22), boost::system::error_code>, std::allocator<void>>::ptr", align 8
  %8 = alloca %"class.boost::asio::detail::binder1.66", align 8
  %9 = alloca ptr, align 8
  %10 = alloca i32, align 4
  store ptr %0, ptr %3, align 8, !tbaa !8
  %11 = zext i1 %1 to i8
  store i8 %11, ptr %4, align 1, !tbaa !53
  call void @llvm.lifetime.start.p0(i64 8, ptr %5) #3
  %12 = load ptr, ptr %3, align 8, !tbaa !8
  store ptr %12, ptr %5, align 8, !tbaa !8
  call void @llvm.lifetime.start.p0(i64 1, ptr %6) #3
  call void @llvm.lifetime.start.p0(i64 24, ptr %7) #3
  %13 = getelementptr inbounds nuw %"struct.boost::asio::detail::executor_function::impl<boost::asio::detail::binder1<(lambda at /home/dtcxzyw/WorkSpace/Projects/compilers/llvm-opt-benchmark/bench/boost/boost/libs/process/test/v2/target.cpp:133:22), boost::system::error_code>, std::allocator<void>>::ptr", ptr %7, i32 0, i32 0
  store ptr %6, ptr %13, align 8, !tbaa !387
  %14 = getelementptr inbounds nuw %"struct.boost::asio::detail::executor_function::impl<boost::asio::detail::binder1<(lambda at /home/dtcxzyw/WorkSpace/Projects/compilers/llvm-opt-benchmark/bench/boost/boost/libs/process/test/v2/target.cpp:133:22), boost::system::error_code>, std::allocator<void>>::ptr", ptr %7, i32 0, i32 1
  %15 = load ptr, ptr %5, align 8, !tbaa !8
  store ptr %15, ptr %14, align 8, !tbaa !389
  %16 = getelementptr inbounds nuw %"struct.boost::asio::detail::executor_function::impl<boost::asio::detail::binder1<(lambda at /home/dtcxzyw/WorkSpace/Projects/compilers/llvm-opt-benchmark/bench/boost/boost/libs/process/test/v2/target.cpp:133:22), boost::system::error_code>, std::allocator<void>>::ptr", ptr %7, i32 0, i32 2
  %17 = load ptr, ptr %5, align 8, !tbaa !8
  store ptr %17, ptr %16, align 8, !tbaa !390
  call void @llvm.lifetime.start.p0(i64 32, ptr %8) #3
  %18 = load ptr, ptr %5, align 8, !tbaa !8
  %19 = getelementptr inbounds nuw %"struct.boost::asio::detail::executor_function::impl.68", ptr %18, i32 0, i32 1
  invoke void @"_ZN5boost4asio6detail7binder1IZ4mainE3$_3NS_6system10error_codeEEC2EOS6_"(ptr noundef nonnull align 8 dereferenceable(32) %8, ptr noundef nonnull align 8 dereferenceable(32) %19)
          to label %20 unwind label %26

20:                                               ; preds = %2
  invoke void @"_ZN5boost4asio6detail17executor_function4implINS1_7binder1IZ4mainE3$_3NS_6system10error_codeEEESaIvEE3ptr5resetEv"(ptr noundef nonnull align 8 dereferenceable(24) %7)
          to label %21 unwind label %26

21:                                               ; preds = %20
  %22 = load i8, ptr %4, align 1, !tbaa !53, !range !75, !noundef !76
  %23 = trunc i8 %22 to i1
  br i1 %23, label %24, label %30

24:                                               ; preds = %21
  invoke void @"_ZN5boost4asio6detail7binder1IZ4mainE3$_3NS_6system10error_codeEEclEv"(ptr noundef nonnull align 8 dereferenceable(32) %8)
          to label %25 unwind label %26

25:                                               ; preds = %24
  br label %30

26:                                               ; preds = %24, %20, %2
  %27 = landingpad { ptr, i32 }
          cleanup
  %28 = extractvalue { ptr, i32 } %27, 0
  store ptr %28, ptr %9, align 8
  %29 = extractvalue { ptr, i32 } %27, 1
  store i32 %29, ptr %10, align 4
  call void @llvm.lifetime.end.p0(i64 32, ptr %8) #3
  call void @"_ZN5boost4asio6detail17executor_function4implINS1_7binder1IZ4mainE3$_3NS_6system10error_codeEEESaIvEE3ptrD2Ev"(ptr noundef nonnull align 8 dereferenceable(24) %7) #3
  call void @llvm.lifetime.end.p0(i64 24, ptr %7) #3
  call void @llvm.lifetime.end.p0(i64 1, ptr %6) #3
  call void @llvm.lifetime.end.p0(i64 8, ptr %5) #3
  br label %31

30:                                               ; preds = %25, %21
  call void @llvm.lifetime.end.p0(i64 32, ptr %8) #3
  call void @"_ZN5boost4asio6detail17executor_function4implINS1_7binder1IZ4mainE3$_3NS_6system10error_codeEEESaIvEE3ptrD2Ev"(ptr noundef nonnull align 8 dereferenceable(24) %7) #3
  call void @llvm.lifetime.end.p0(i64 24, ptr %7) #3
  call void @llvm.lifetime.end.p0(i64 1, ptr %6) #3
  call void @llvm.lifetime.end.p0(i64 8, ptr %5) #3
  ret void

31:                                               ; preds = %26
  %32 = load ptr, ptr %9, align 8
  %33 = load i32, ptr %10, align 4
  %34 = insertvalue { ptr, i32 } poison, ptr %32, 0
  %35 = insertvalue { ptr, i32 } %34, i32 %33, 1
  resume { ptr, i32 } %35
}