; Function Attrs: mustprogress nounwind uwtable
define internal void @"_ZN5boost4asio6detail17executor_function8completeINS1_7binder1IZ4mainE3$_3NS_6system10error_codeEEESaIvEEEvPNS2_9impl_baseEb"(ptr noundef %0, i1 noundef zeroext %1) #12 align 2 personality ptr @__gxx_personality_v0 {
  %.sroa.5 = alloca %"class.boost::system::error_code", align 8
  call void @llvm.lifetime.start.p0(i64 24, ptr nonnull %.sroa.5)
  %3 = getelementptr inbounds nuw i8, ptr %0, i64 8
  %4 = load i64, ptr %3, align 8, !tbaa !4
  %5 = inttoptr i64 %4 to ptr
  %6 = getelementptr inbounds nuw i8, ptr %0, i64 16
  call void @llvm.memcpy.p0.p0.i64(ptr noundef nonnull align 8 dereferenceable(24) %.sroa.5, ptr noundef nonnull align 8 dereferenceable(24) %6, i64 24, i1 false), !tbaa.struct !150
  %7 = tail call align 8 ptr @llvm.threadlocal.address.p0(ptr align 8 @_ZN5boost4asio6detail15keyword_tss_ptrINS1_10call_stackINS1_14thread_contextENS1_16thread_info_baseEE7contextEE6value_E)
  %8 = load ptr, ptr %7, align 8, !tbaa !4
  %.not.i.i.i.i = icmp eq ptr %8, null
  br i1 %.not.i.i.i.i, label %.thread.i.i.i, label %_ZN5boost4asio6detail14thread_context24top_of_thread_call_stackEv.exit.i.i

_ZN5boost4asio6detail14thread_context24top_of_thread_call_stackEv.exit.i.i: ; preds = %2
  %9 = getelementptr inbounds nuw i8, ptr %8, i64 8
  %10 = load ptr, ptr %9, align 8, !tbaa !99
  %.not.i.i = icmp eq ptr %10, null
  br i1 %.not.i.i, label %.thread.i.i.i, label %.preheader.i.i.i

11:                                               ; preds = %.preheader.i.i.i
  %indvars.iv.next.i.i.i = add nuw nsw i64 %indvars.iv.i.i.i, 1
  %exitcond.not.i.i.i = icmp eq i64 %indvars.iv.next.i.i.i, 6
  br i1 %exitcond.not.i.i.i, label %.thread.i.i.i, label %.preheader.i.i.i, !llvm.loop !492

.preheader.i.i.i:                                 ; preds = %_ZN5boost4asio6detail14thread_context24top_of_thread_call_stackEv.exit.i.i, %11
  %indvars.iv.i.i.i = phi i64 [ %indvars.iv.next.i.i.i, %11 ], [ 4, %_ZN5boost4asio6detail14thread_context24top_of_thread_call_stackEv.exit.i.i ]
  %12 = getelementptr inbounds [12 x ptr], ptr %10, i64 0, i64 %indvars.iv.i.i.i
  %13 = load ptr, ptr %12, align 8, !tbaa !4
  %14 = icmp eq ptr %13, null
  br i1 %14, label %15, label %11

15:                                               ; preds = %.preheader.i.i.i
  %16 = getelementptr inbounds [12 x ptr], ptr %10, i64 0, i64 %indvars.iv.i.i.i
  %17 = getelementptr inbounds nuw i8, ptr %0, i64 48
  %18 = load i8, ptr %17, align 1, !tbaa !14
  store i8 %18, ptr %0, align 1, !tbaa !14
  store ptr %0, ptr %16, align 8, !tbaa !4
  br label %19

.thread.i.i.i:                                    ; preds = %11, %_ZN5boost4asio6detail14thread_context24top_of_thread_call_stackEv.exit.i.i, %2
  tail call void @free(ptr noundef %0) #37
  br label %19

19:                                               ; preds = %.thread.i.i.i, %15
  br i1 %1, label %20, label %"_ZN5boost4asio6detail17executor_function4implINS1_7binder1IZ4mainE3$_3NS_6system10error_codeEEESaIvEE3ptrD2Ev.exit"

20:                                               ; preds = %19
  call void @llvm.memcpy.p0.p0.i64(ptr noundef nonnull align 8 dereferenceable(24) %5, ptr noundef nonnull align 8 dereferenceable(24) %.sroa.5, i64 24, i1 false)
  br label %"_ZN5boost4asio6detail17executor_function4implINS1_7binder1IZ4mainE3$_3NS_6system10error_codeEEESaIvEE3ptrD2Ev.exit"

"_ZN5boost4asio6detail17executor_function4implINS1_7binder1IZ4mainE3$_3NS_6system10error_codeEEESaIvEE3ptrD2Ev.exit": ; preds = %19, %20
  call void @llvm.lifetime.end.p0(i64 24, ptr nonnull %.sroa.5)
  ret void
}